target datalayout = "e-m:e-p270:32:32-p271:32:32-p272:64:64-i64:64-i128:128-f80:128-n8:16:32:64-S128"
target triple = "x86_64-pc-linux-gnu"

%struct.AVChannelLayout = type { i32, i32, %union.anon, ptr }
%union.anon = type { i64 }

; Function Attrs: nounwind uwtable
define void @av_channel_layout_uninit(ptr noundef %0) #0 {
  %2 = alloca ptr, align 8
  store ptr %0, ptr %2, align 8, !tbaa !23
  %3 = load ptr, ptr %2, align 8, !tbaa !23
  %4 = getelementptr inbounds nuw %struct.AVChannelLayout, ptr %3, i32 0, i32 0
  %5 = load i32, ptr %4, align 8, !tbaa !30
  %6 = icmp eq i32 %5, 2
  br i1 %6, label %7, label %10

7:                                                ; preds = %1
  %8 = load ptr, ptr %2, align 8, !tbaa !23
  %9 = getelementptr inbounds nuw %struct.AVChannelLayout, ptr %8, i32 0, i32 2
  call void @av_freep(ptr noundef %9)
  br label %10

10:                                               ; preds = %7, %1
  %11 = load ptr, ptr %2, align 8, !tbaa !23
  call void @llvm.memset.p0.i64(ptr align 8 %11, i8 0, i64 24, i1 false)
  ret void
}

; Function Attrs: nounwind uwtable
define i32 @av_channel_layout_copy(ptr noundef %0, ptr noundef %1) #0 {
  %3 = alloca i32, align 4
  %4 = alloca ptr, align 8
  %5 = alloca ptr, align 8
  store ptr %0, ptr %4, align 8, !tbaa !23
  store ptr %1, ptr %5, align 8, !tbaa !23
  %6 = load ptr, ptr %4, align 8, !tbaa !23
  call void @av_channel_layout_uninit(ptr noundef %6)
  %7 = load ptr, ptr %4, align 8, !tbaa !23
  %8 = load ptr, ptr %5, align 8, !tbaa !23
  call void @llvm.memcpy.p0.p0.i64(ptr align 8 %7, ptr align 8 %8, i64 24, i1 false), !tbaa.struct !35
  %9 = load ptr, ptr %5, align 8, !tbaa !23
  %10 = getelementptr inbounds nuw %struct.AVChannelLayout, ptr %9, i32 0, i32 0
  %11 = load i32, ptr %10, align 8, !tbaa !30
  %12 = icmp eq i32 %11, 2
  br i1 %12, label %13, label %38

13:                                               ; preds = %2
  %14 = load ptr, ptr %5, align 8, !tbaa !23
  %15 = getelementptr inbounds nuw %struct.AVChannelLayout, ptr %14, i32 0, i32 1
  %16 = load i32, ptr %15, align 4, !tbaa !32
  %17 = sext i32 %16 to i64
  %18 = call ptr @av_malloc_array(i64 noundef %17, i64 noundef 32)
  %19 = load ptr, ptr %4, align 8, !tbaa !23
  %20 = getelementptr inbounds nuw %struct.AVChannelLayout, ptr %19, i32 0, i32 2
  store ptr %18, ptr %20, align 8, !tbaa !22
  %21 = load ptr, ptr %4, align 8, !tbaa !23
  %22 = getelementptr inbounds nuw %struct.AVChannelLayout, ptr %21, i32 0, i32 2
  %23 = load ptr, ptr %22, align 8, !tbaa !22
  %24 = icmp ne ptr %23, null
  br i1 %24, label %26, label %25

25:                                               ; preds = %13
  store i32 -12, ptr %3, align 4
  br label %39

26:                                               ; preds = %13
  %27 = load ptr, ptr %4, align 8, !tbaa !23
  %28 = getelementptr inbounds nuw %struct.AVChannelLayout, ptr %27, i32 0, i32 2
  %29 = load ptr, ptr %28, align 8, !tbaa !22
  %30 = load ptr, ptr %5, align 8, !tbaa !23
  %31 = getelementptr inbounds nuw %struct.AVChannelLayout, ptr %30, i32 0, i32 2
  %32 = load ptr, ptr %31, align 8, !tbaa !22
  %33 = load ptr, ptr %5, align 8, !tbaa !23
  %34 = getelementptr inbounds nuw %struct.AVChannelLayout, ptr %33, i32 0, i32 1
  %35 = load i32, ptr %34, align 4, !tbaa !32
  %36 = sext i32 %35 to i64
  %37 = mul i64 %36, 32
  call void @llvm.memcpy.p0.p0.i64(ptr align 8 %29, ptr align 8 %32, i64 %37, i1 false)
  br label %38

38:                                               ; preds = %26, %2
  store i32 0, ptr %3, align 4
  br label %39

39:                                               ; preds = %38, %25
  %40 = load i32, ptr %3, align 4
  ret i32 %40
}