; Function Attrs: nounwind uwtable
define range(i32 -12, 1) i32 @av_channel_layout_copy(ptr noundef %0, ptr noundef readonly captures(none) %1) local_unnamed_addr #0 {
  %3 = load i32, ptr %0, align 8, !tbaa !18
  %4 = icmp eq i32 %3, 2
  br i1 %4, label %5, label %av_channel_layout_uninit.exit

5:                                                ; preds = %2
  %6 = getelementptr inbounds nuw i8, ptr %0, i64 8
  tail call void @av_freep(ptr noundef nonnull %6) #16
  br label %av_channel_layout_uninit.exit

av_channel_layout_uninit.exit:                    ; preds = %2, %5
  tail call void @llvm.memset.p0.i64(ptr noundef nonnull align 8 dereferenceable(24) %0, i8 0, i64 24, i1 false)
  tail call void @llvm.memcpy.p0.p0.i64(ptr noundef nonnull align 8 dereferenceable(24) %0, ptr noundef nonnull align 8 dereferenceable(24) %1, i64 24, i1 false), !tbaa.struct !27
  %7 = load i32, ptr %1, align 8, !tbaa !18
  %8 = icmp eq i32 %7, 2
  br i1 %8, label %9, label %21

9:                                                ; preds = %av_channel_layout_uninit.exit
  %10 = getelementptr inbounds nuw i8, ptr %1, i64 4
  %11 = load i32, ptr %10, align 4, !tbaa !20
  %12 = sext i32 %11 to i64
  %13 = tail call ptr @av_malloc_array(i64 noundef %12, i64 noundef 32) #16
  %14 = getelementptr inbounds nuw i8, ptr %0, i64 8
  store ptr %13, ptr %14, align 8, !tbaa !17
  %.not = icmp eq ptr %13, null
  br i1 %.not, label %21, label %15

15:                                               ; preds = %9
  %16 = getelementptr inbounds nuw i8, ptr %1, i64 8
  %17 = load ptr, ptr %16, align 8, !tbaa !17
  %18 = load i32, ptr %10, align 4, !tbaa !20
  %19 = sext i32 %18 to i64
  %20 = shl nsw i64 %19, 5
  tail call void @llvm.memcpy.p0.p0.i64(ptr nonnull align 8 %13, ptr align 8 %17, i64 %20, i1 false)
  br label %21

21:                                               ; preds = %av_channel_layout_uninit.exit, %15, %9
  %.0 = phi i32 [ -12, %9 ], [ 0, %15 ], [ 0, %av_channel_layout_uninit.exit ]
  ret i32 %.0
}